; Function Attrs: mustprogress nofree norecurse nosync nounwind willreturn memory(readwrite, inaccessiblemem: none) uwtable
define hidden void @_ZN3sat9lookahead10del_binaryEj(ptr nocapture noundef nonnull align 8 dereferenceable(1160) %this, i32 noundef %idx) local_unnamed_addr #8 align 2 {
entry:
  %m_binary = getelementptr inbounds i8, ptr %this, i64 216
  %0 = load ptr, ptr %m_binary, align 8
  %idxprom.i = zext i32 %idx to i64
  %arrayidx.i = getelementptr inbounds %class.svector.1, ptr %0, i64 %idxprom.i
  %1 = load ptr, ptr %arrayidx.i, align 8
  %cmp.i.i = icmp eq ptr %1, null
  br i1 %cmp.i.i, label %entry._ZN6vectorIN3sat7literalELb0EjE4backEv.exit_crit_edge, label %if.end.i.i

entry._ZN6vectorIN3sat7literalELb0EjE4backEv.exit_crit_edge: ; preds = %entry
  %.pre = load i32, ptr inttoptr (i64 -4 to ptr), align 4
  %.pre7 = add i32 %.pre, -1
  br label %_ZN6vectorIN3sat7literalELb0EjE4backEv.exit

if.end.i.i:                                       ; preds = %entry
  %arrayidx.i.i = getelementptr inbounds i8, ptr %1, i64 -4
  %2 = load i32, ptr %arrayidx.i.i, align 4
  %3 = add i32 %2, -1
  %4 = zext i32 %3 to i64
  br label %_ZN6vectorIN3sat7literalELb0EjE4backEv.exit

_ZN6vectorIN3sat7literalELb0EjE4backEv.exit:      ; preds = %entry._ZN6vectorIN3sat7literalELb0EjE4backEv.exit_crit_edge, %if.end.i.i
  %dec.i.pre-phi = phi i32 [ %.pre7, %entry._ZN6vectorIN3sat7literalELb0EjE4backEv.exit_crit_edge ], [ %3, %if.end.i.i ]
  %retval.0.i.i = phi i64 [ 4294967295, %entry._ZN6vectorIN3sat7literalELb0EjE4backEv.exit_crit_edge ], [ %4, %if.end.i.i ]
  %arrayidx.i1.i = getelementptr inbounds %"class.sat::literal", ptr %1, i64 %retval.0.i.i
  %l.sroa.0.0.copyload = load i32, ptr %arrayidx.i1.i, align 4
  %arrayidx.i2 = getelementptr inbounds i8, ptr %1, i64 -4
  store i32 %dec.i.pre-phi, ptr %arrayidx.i2, align 4
  %xor.i = xor i32 %l.sroa.0.0.copyload, 1
  %5 = load ptr, ptr %m_binary, align 8
  %idxprom.i3 = zext i32 %xor.i to i64
  %arrayidx.i4 = getelementptr inbounds %class.svector.1, ptr %5, i64 %idxprom.i3
  %6 = load ptr, ptr %arrayidx.i4, align 8
  %arrayidx.i5 = getelementptr inbounds i8, ptr %6, i64 -4
  %7 = load i32, ptr %arrayidx.i5, align 4
  %dec.i6 = add i32 %7, -1
  store i32 %dec.i6, ptr %arrayidx.i5, align 4
  %m_del_binary = getelementptr inbounds i8, ptr %this, i64 1004
  %8 = load i32, ptr %m_del_binary, align 4
  %inc = add i32 %8, 1
  store i32 %inc, ptr %m_del_binary, align 4
  ret void
}